; Function Attrs: mustprogress uwtable
define hidden noundef nonnull align 8 dereferenceable(32) ptr @_ZN8FileTest17GetAttributeOrDieERKNSt7__cxx1112basic_stringIcSt11char_traitsIcESaIcEEE(ptr noundef nonnull align 8 dereferenceable(176) %0, ptr noundef nonnull align 8 dereferenceable(32) %1) local_unnamed_addr #6 align 2 {
  %3 = tail call noundef zeroext i1 @_ZN8FileTest12HasAttributeERKNSt7__cxx1112basic_stringIcSt11char_traitsIcESaIcEEE(ptr noundef nonnull align 8 dereferenceable(176) %0, ptr noundef nonnull align 8 dereferenceable(32) %1)
  br i1 %3, label %5, label %4

4:                                                ; preds = %2
  tail call void @abort() #27
  unreachable

5:                                                ; preds = %2
  %6 = getelementptr inbounds nuw i8, ptr %0, i64 80
  %7 = tail call noundef nonnull align 8 dereferenceable(32) ptr @_ZNSt3mapINSt7__cxx1112basic_stringIcSt11char_traitsIcESaIcEEES5_St4lessIS5_ESaISt4pairIKS5_S5_EEEixERS9_(ptr noundef nonnull align 8 dereferenceable(48) %6, ptr noundef nonnull align 8 dereferenceable(32) %1)
  ret ptr %7
}